; Function Attrs: mustprogress nounwind uwtable
define internal fastcc void @_ZN12_GLOBAL__N_111DeclPrinter24VisitOMPCapturedExprDeclEPN5clang19OMPCapturedExprDeclE(ptr noundef nonnull align 8 dereferenceable(37) %0, ptr noundef nonnull %1) unnamed_addr #0 align 2 {
  %3 = alloca %"class.llvm::StringRef", align 8
  %4 = tail call noundef ptr @_ZN5clang7VarDecl7getInitEv(ptr noundef nonnull align 8 dereferenceable(100) %1) #14
  %5 = load ptr, ptr %0, align 8
  %6 = getelementptr inbounds nuw i8, ptr %0, i64 8
  %7 = getelementptr inbounds nuw i8, ptr %0, i64 32
  %8 = load i32, ptr %7, align 8
  store ptr @.str.4, ptr %3, align 8
  %9 = getelementptr inbounds nuw i8, ptr %3, i64 8
  store i64 1, ptr %9, align 8
  %10 = getelementptr inbounds nuw i8, ptr %0, i64 24
  %11 = load ptr, ptr %10, align 8
  tail call void @_ZNK5clang4Stmt11printPrettyERN4llvm11raw_ostreamEPNS_13PrinterHelperERKNS_14PrintingPolicyEjNS1_9StringRefEPKNS_10ASTContextE(ptr noundef nonnull align 8 dereferenceable(8) %4, ptr noundef nonnull align 8 dereferenceable(48) %5, ptr noundef null, ptr noundef nonnull align 8 dereferenceable(16) %6, i32 noundef %8, ptr noundef nonnull byval(%"class.llvm::StringRef") align 8 %3, ptr noundef %11) #14
  ret void
}